; Function Attrs: null_pointer_is_valid sspstrong uwtable
define internal fastcc void @report_heur_error(ptr noundef %0, ptr noundef %1, ptr noundef %2, ptr noundef %3, i32 noundef %4, i32 noundef %5) unnamed_addr #0 {
  %7 = getelementptr inbounds nuw i8, ptr %1, i64 8
  %8 = load ptr, ptr %7, align 8
  tail call void @col_set_str(ptr noundef %8, i32 noundef 35, ptr noundef nonnull @.str.220)
  %9 = load ptr, ptr %7, align 8
  tail call void @col_clear(ptr noundef %9, i32 noundef 25)
  %10 = load i32, ptr @proto_rlc_lte, align 4
  %11 = tail call ptr @proto_tree_add_item(ptr noundef %0, i32 noundef %10, ptr noundef %3, i32 noundef 0, i32 noundef -1, i32 noundef 0)
  %12 = load i32, ptr @ett_rlc_lte, align 4
  %13 = tail call ptr @proto_item_add_subtree(ptr noundef %11, i32 noundef %12)
  %14 = tail call ptr @proto_tree_add_expert(ptr noundef %13, ptr noundef %1, ptr noundef %2, ptr noundef %3, i32 noundef %4, i32 noundef %5)
  ret void
}